target datalayout = "e-m:e-p270:32:32-p271:32:32-p272:64:64-i64:64-i128:128-f80:128-n8:16:32:64-S128"
target triple = "x86_64-pc-linux-gnu"

%struct.Ndr_Data_t_ = type { i32, i32, ptr, ptr }

@.str.78 = private unnamed_addr constant [8 x i8] c"signed \00", align 1
@.str.79 = private unnamed_addr constant [8 x i8] c"[%d:%d]\00", align 1
@.str.80 = private unnamed_addr constant [5 x i8] c"[%d]\00", align 1

; Function Attrs: inlinehint nounwind uwtable
define internal i32 @Ndr_DataSize(ptr noundef %0, i32 noundef %1) #4 {
  %3 = alloca ptr, align 8
  %4 = alloca i32, align 4
  store ptr %0, ptr %3, align 8, !tbaa !29
  store i32 %1, ptr %4, align 4, !tbaa !3
  %5 = load ptr, ptr %3, align 8, !tbaa !29
  %6 = load i32, ptr %4, align 4, !tbaa !3
  %7 = call i32 @Ndr_DataType(ptr noundef %5, i32 noundef %6)
  %8 = icmp sgt i32 %7, 3
  br i1 %8, label %9, label %10

9:                                                ; preds = %2
  br label %18

10:                                               ; preds = %2
  %11 = load ptr, ptr %3, align 8, !tbaa !29
  %12 = getelementptr inbounds nuw %struct.Ndr_Data_t_, ptr %11, i32 0, i32 3
  %13 = load ptr, ptr %12, align 8, !tbaa !35
  %14 = load i32, ptr %4, align 4, !tbaa !3
  %15 = sext i32 %14 to i64
  %16 = getelementptr inbounds i32, ptr %13, i64 %15
  %17 = load i32, ptr %16, align 4, !tbaa !3
  br label %18

18:                                               ; preds = %10, %9
  %19 = phi i32 [ 1, %9 ], [ %17, %10 ]
  ret i32 %19
}

; Function Attrs: inlinehint nounwind uwtable
define internal i32 @Ndr_DataType(ptr noundef %0, i32 noundef %1) #4 {
  %3 = alloca ptr, align 8
  %4 = alloca i32, align 4
  store ptr %0, ptr %3, align 8, !tbaa !29
  store i32 %1, ptr %4, align 4, !tbaa !3
  %5 = load ptr, ptr %3, align 8, !tbaa !29
  %6 = getelementptr inbounds nuw %struct.Ndr_Data_t_, ptr %5, i32 0, i32 2
  %7 = load ptr, ptr %6, align 8, !tbaa !34
  %8 = load i32, ptr %4, align 4, !tbaa !3
  %9 = sext i32 %8 to i64
  %10 = getelementptr inbounds i8, ptr %7, i64 %9
  %11 = load i8, ptr %10, align 1, !tbaa !10
  %12 = zext i8 %11 to i32
  ret i32 %12
}

; Function Attrs: inlinehint nounwind uwtable
define internal i32 @Ndr_DataEnd(ptr noundef %0, i32 noundef %1) #4 {
  %3 = alloca ptr, align 8
  %4 = alloca i32, align 4
  store ptr %0, ptr %3, align 8, !tbaa !29
  store i32 %1, ptr %4, align 4, !tbaa !3
  %5 = load i32, ptr %4, align 4, !tbaa !3
  %6 = load ptr, ptr %3, align 8, !tbaa !29
  %7 = getelementptr inbounds nuw %struct.Ndr_Data_t_, ptr %6, i32 0, i32 3
  %8 = load ptr, ptr %7, align 8, !tbaa !35
  %9 = load i32, ptr %4, align 4, !tbaa !3
  %10 = sext i32 %9 to i64
  %11 = getelementptr inbounds i32, ptr %8, i64 %10
  %12 = load i32, ptr %11, align 4, !tbaa !3
  %13 = add i32 %5, %12
  ret i32 %13
}

; Function Attrs: inlinehint nounwind uwtable
define internal i32 @Ndr_ObjReadArray(ptr noundef %0, i32 noundef %1, i32 noundef %2, ptr noundef %3) #4 {
  %5 = alloca i32, align 4
  %6 = alloca ptr, align 8
  %7 = alloca i32, align 4
  %8 = alloca i32, align 4
  %9 = alloca ptr, align 8
  %10 = alloca i32, align 4
  %11 = alloca i32, align 4
  %12 = alloca i32, align 4
  store ptr %0, ptr %6, align 8, !tbaa !29
  store i32 %1, ptr %7, align 4, !tbaa !3
  store i32 %2, ptr %8, align 4, !tbaa !3
  store ptr %3, ptr %9, align 8, !tbaa !56
  call void @llvm.lifetime.start.p0(i64 4, ptr %10) #11
  call void @llvm.lifetime.start.p0(i64 4, ptr %11) #11
  store i32 0, ptr %11, align 4, !tbaa !3
  %13 = load ptr, ptr %9, align 8, !tbaa !56
  store ptr null, ptr %13, align 8, !tbaa !7
  %14 = load i32, ptr %7, align 4, !tbaa !3
  %15 = add nsw i32 %14, 1
  store i32 %15, ptr %10, align 4, !tbaa !3
  br label %16

16:                                               ; preds = %51, %4
  %17 = load i32, ptr %10, align 4, !tbaa !3
  %18 = load ptr, ptr %6, align 8, !tbaa !29
  %19 = load i32, ptr %7, align 4, !tbaa !3
  %20 = call i32 @Ndr_DataEnd(ptr noundef %18, i32 noundef %19)
  %21 = icmp slt i32 %17, %20
  br i1 %21, label %22, label %57

22:                                               ; preds = %16
  %23 = load ptr, ptr %6, align 8, !tbaa !29
  %24 = load i32, ptr %10, align 4, !tbaa !3
  %25 = call i32 @Ndr_DataType(ptr noundef %23, i32 noundef %24)
  %26 = load i32, ptr %8, align 4, !tbaa !3
  %27 = icmp eq i32 %25, %26
  br i1 %27, label %28, label %43

28:                                               ; preds = %22
  %29 = load i32, ptr %11, align 4, !tbaa !3
  %30 = add nsw i32 %29, 1
  store i32 %30, ptr %11, align 4, !tbaa !3
  %31 = load ptr, ptr %9, align 8, !tbaa !56
  %32 = load ptr, ptr %31, align 8, !tbaa !7
  %33 = icmp eq ptr %32, null
  br i1 %33, label %34, label %42

34:                                               ; preds = %28
  %35 = load ptr, ptr %6, align 8, !tbaa !29
  %36 = getelementptr inbounds nuw %struct.Ndr_Data_t_, ptr %35, i32 0, i32 3
  %37 = load ptr, ptr %36, align 8, !tbaa !35
  %38 = load i32, ptr %10, align 4, !tbaa !3
  %39 = sext i32 %38 to i64
  %40 = getelementptr inbounds i32, ptr %37, i64 %39
  %41 = load ptr, ptr %9, align 8, !tbaa !56
  store ptr %40, ptr %41, align 8, !tbaa !7
  br label %42

42:                                               ; preds = %34, %28
  br label %50

43:                                               ; preds = %22
  %44 = load ptr, ptr %9, align 8, !tbaa !56
  %45 = load ptr, ptr %44, align 8, !tbaa !7
  %46 = icmp ne ptr %45, null
  br i1 %46, label %47, label %49

47:                                               ; preds = %43
  %48 = load i32, ptr %11, align 4, !tbaa !3
  store i32 %48, ptr %5, align 4
  store i32 1, ptr %12, align 4
  br label %59

49:                                               ; preds = %43
  br label %50

50:                                               ; preds = %49, %42
  br label %51

51:                                               ; preds = %50
  %52 = load ptr, ptr %6, align 8, !tbaa !29
  %53 = load i32, ptr %10, align 4, !tbaa !3
  %54 = call i32 @Ndr_DataSize(ptr noundef %52, i32 noundef %53)
  %55 = load i32, ptr %10, align 4, !tbaa !3
  %56 = add nsw i32 %55, %54
  store i32 %56, ptr %10, align 4, !tbaa !3
  br label %16, !llvm.loop !58

57:                                               ; preds = %16
  %58 = load i32, ptr %11, align 4, !tbaa !3
  store i32 %58, ptr %5, align 4
  store i32 1, ptr %12, align 4
  br label %59

59:                                               ; preds = %57, %47
  call void @llvm.lifetime.end.p0(i64 4, ptr %11) #11
  call void @llvm.lifetime.end.p0(i64 4, ptr %10) #11
  %60 = load i32, ptr %5, align 4
  ret i32 %60
}

; Function Attrs: inlinehint nounwind uwtable
define internal void @Ndr_ObjWriteRange(ptr noundef %0, i32 noundef %1, ptr noundef %2, i32 noundef %3) #4 {
  %5 = alloca ptr, align 8
  %6 = alloca i32, align 4
  %7 = alloca ptr, align 8
  %8 = alloca i32, align 4
  %9 = alloca ptr, align 8
  %10 = alloca i32, align 4
  %11 = alloca i32, align 4
  store ptr %0, ptr %5, align 8, !tbaa !29
  store i32 %1, ptr %6, align 4, !tbaa !3
  store ptr %2, ptr %7, align 8, !tbaa !50
  store i32 %3, ptr %8, align 4, !tbaa !3
  call void @llvm.lifetime.start.p0(i64 8, ptr %9) #11
  call void @llvm.lifetime.start.p0(i64 4, ptr %10) #11
  %12 = load ptr, ptr %5, align 8, !tbaa !29
  %13 = load i32, ptr %6, align 4, !tbaa !3
  %14 = call i32 @Ndr_ObjReadArray(ptr noundef %12, i32 noundef %13, i32 noundef 8, ptr noundef %9)
  store i32 %14, ptr %10, align 4, !tbaa !3
  %15 = load i32, ptr %10, align 4, !tbaa !3
  %16 = icmp eq i32 %15, 0
  br i1 %16, label %20, label %17

17:                                               ; preds = %4
  %18 = load i32, ptr %10, align 4, !tbaa !3
  %19 = icmp eq i32 %18, 1
  br i1 %19, label %20, label %24

20:                                               ; preds = %17, %4
  %21 = load i32, ptr %8, align 4, !tbaa !3
  %22 = icmp ne i32 %21, 0
  br i1 %22, label %23, label %24

23:                                               ; preds = %20
  store i32 1, ptr %11, align 4
  br label %80

24:                                               ; preds = %20, %17
  %25 = load i32, ptr %10, align 4, !tbaa !3
  %26 = icmp eq i32 %25, 3
  br i1 %26, label %27, label %33

27:                                               ; preds = %24
  %28 = load i32, ptr %8, align 4, !tbaa !3
  %29 = icmp ne i32 %28, 0
  br i1 %29, label %30, label %33

30:                                               ; preds = %27
  %31 = load ptr, ptr %7, align 8, !tbaa !50
  %32 = call i32 (ptr, ptr, ...) @fprintf(ptr noundef %31, ptr noundef @.str.78) #11
  br label %79

33:                                               ; preds = %27, %24
  %34 = load i32, ptr %10, align 4, !tbaa !3
  %35 = icmp eq i32 %34, 1
  br i1 %35, label %36, label %55

36:                                               ; preds = %33
  %37 = load i32, ptr %8, align 4, !tbaa !3
  %38 = icmp ne i32 %37, 0
  br i1 %38, label %39, label %48

39:                                               ; preds = %36
  %40 = load ptr, ptr %7, align 8, !tbaa !50
  %41 = load ptr, ptr %9, align 8, !tbaa !7
  %42 = getelementptr inbounds i32, ptr %41, i64 0
  %43 = load i32, ptr %42, align 4, !tbaa !3
  %44 = load ptr, ptr %9, align 8, !tbaa !7
  %45 = getelementptr inbounds i32, ptr %44, i64 0
  %46 = load i32, ptr %45, align 4, !tbaa !3
  %47 = call i32 (ptr, ptr, ...) @fprintf(ptr noundef %40, ptr noundef @.str.79, i32 noundef %43, i32 noundef %46) #11
  br label %54

48:                                               ; preds = %36
  %49 = load ptr, ptr %7, align 8, !tbaa !50
  %50 = load ptr, ptr %9, align 8, !tbaa !7
  %51 = getelementptr inbounds i32, ptr %50, i64 0
  %52 = load i32, ptr %51, align 4, !tbaa !3
  %53 = call i32 (ptr, ptr, ...) @fprintf(ptr noundef %49, ptr noundef @.str.80, i32 noundef %52) #11
  br label %54

54:                                               ; preds = %48, %39
  br label %78

55:                                               ; preds = %33
  %56 = load i32, ptr %10, align 4, !tbaa !3
  %57 = icmp eq i32 %56, 0
  br i1 %57, label %58, label %68

58:                                               ; preds = %55
  %59 = load i32, ptr %8, align 4, !tbaa !3
  %60 = icmp ne i32 %59, 0
  br i1 %60, label %61, label %64

61:                                               ; preds = %58
  %62 = load ptr, ptr %7, align 8, !tbaa !50
  %63 = call i32 (ptr, ptr, ...) @fprintf(ptr noundef %62, ptr noundef @.str.79, i32 noundef 0, i32 noundef 0) #11
  br label %67

64:                                               ; preds = %58
  %65 = load ptr, ptr %7, align 8, !tbaa !50
  %66 = call i32 (ptr, ptr, ...) @fprintf(ptr noundef %65, ptr noundef @.str.80, i32 noundef 0) #11
  br label %67

67:                                               ; preds = %64, %61
  br label %77

68:                                               ; preds = %55
  %69 = load ptr, ptr %7, align 8, !tbaa !50
  %70 = load ptr, ptr %9, align 8, !tbaa !7
  %71 = getelementptr inbounds i32, ptr %70, i64 0
  %72 = load i32, ptr %71, align 4, !tbaa !3
  %73 = load ptr, ptr %9, align 8, !tbaa !7
  %74 = getelementptr inbounds i32, ptr %73, i64 1
  %75 = load i32, ptr %74, align 4, !tbaa !3
  %76 = call i32 (ptr, ptr, ...) @fprintf(ptr noundef %69, ptr noundef @.str.79, i32 noundef %72, i32 noundef %75) #11
  br label %77

77:                                               ; preds = %68, %67
  br label %78

78:                                               ; preds = %77, %54
  br label %79

79:                                               ; preds = %78, %30
  store i32 0, ptr %11, align 4
  br label %80

80:                                               ; preds = %79, %23
  call void @llvm.lifetime.end.p0(i64 4, ptr %10) #11
  call void @llvm.lifetime.end.p0(i64 8, ptr %9) #11
  %81 = load i32, ptr %11, align 4
  switch i32 %81, label %83 [
    i32 0, label %82
    i32 1, label %82
  ]

82:                                               ; preds = %80, %80
  ret void

83:                                               ; preds = %80
  unreachable
}