; Function Attrs: inlinehint nofree nounwind uwtable
define internal fastcc void @Ndr_ObjWriteRange(ptr noundef readonly captures(none) %0, i32 noundef %1, ptr noundef nonnull captures(none) %2, i32 noundef range(i32 0, 2) %3) unnamed_addr #18 {
  %5 = add nsw i32 %1, 1
  %6 = getelementptr i8, ptr %0, i64 16
  %7 = sext i32 %1 to i64
  %.val2122.i = load ptr, ptr %6, align 8, !tbaa !16
  %8 = getelementptr inbounds i32, ptr %.val2122.i, i64 %7
  %9 = load i32, ptr %8, align 4, !tbaa !3
  %10 = add i32 %9, %1
  %11 = icmp slt i32 %5, %10
  br i1 %11, label %.lr.ph.i, label %Ndr_ObjReadArray.exit

.lr.ph.i:                                         ; preds = %4
  %12 = getelementptr i8, ptr %0, i64 8
  %.val.i = load ptr, ptr %12, align 8, !tbaa !15
  br label %13

13:                                               ; preds = %Ndr_DataSize.exit.i, %.lr.ph.i
  %.0 = phi ptr [ null, %.lr.ph.i ], [ %.126, %Ndr_DataSize.exit.i ]
  %14 = phi ptr [ null, %.lr.ph.i ], [ %32, %Ndr_DataSize.exit.i ]
  %15 = phi ptr [ null, %.lr.ph.i ], [ %31, %Ndr_DataSize.exit.i ]
  %.024.i = phi i32 [ 0, %.lr.ph.i ], [ %.1.i27, %Ndr_DataSize.exit.i ]
  %.01923.i = phi i32 [ %5, %.lr.ph.i ], [ %34, %Ndr_DataSize.exit.i ]
  %16 = sext i32 %.01923.i to i64
  %17 = getelementptr inbounds i8, ptr %.val.i, i64 %16
  %18 = load i8, ptr %17, align 1, !tbaa !7
  %19 = icmp eq i8 %18, 8
  br i1 %19, label %20, label %25

20:                                               ; preds = %13
  %21 = add nsw i32 %.024.i, 1
  %22 = icmp eq ptr %14, null
  br i1 %22, label %23, label %Ndr_DataSize.exit.i

23:                                               ; preds = %20
  %24 = getelementptr inbounds i32, ptr %.val2122.i, i64 %16
  br label %Ndr_DataSize.exit.i

25:                                               ; preds = %13
  %.not.i = icmp eq ptr %15, null
  br i1 %.not.i, label %26, label %Ndr_ObjReadArray.exit

26:                                               ; preds = %25
  %27 = icmp ugt i8 %18, 3
  br i1 %27, label %Ndr_DataSize.exit.i, label %28

28:                                               ; preds = %26
  %29 = getelementptr inbounds i32, ptr %.val2122.i, i64 %16
  %30 = load i32, ptr %29, align 4, !tbaa !3
  br label %Ndr_DataSize.exit.i

Ndr_DataSize.exit.i:                              ; preds = %20, %23, %28, %26
  %.1.i27 = phi i32 [ %.024.i, %28 ], [ %.024.i, %26 ], [ %21, %23 ], [ %21, %20 ]
  %31 = phi ptr [ null, %28 ], [ null, %26 ], [ %24, %23 ], [ %14, %20 ]
  %32 = phi ptr [ %14, %28 ], [ %14, %26 ], [ %24, %23 ], [ %14, %20 ]
  %.126 = phi ptr [ %.0, %28 ], [ %.0, %26 ], [ %24, %23 ], [ %.0, %20 ]
  %33 = phi i32 [ %30, %28 ], [ 1, %26 ], [ 1, %23 ], [ 1, %20 ]
  %34 = add nsw i32 %33, %.01923.i
  %35 = icmp slt i32 %34, %10
  br i1 %35, label %13, label %Ndr_ObjReadArray.exit, !llvm.loop !49

Ndr_ObjReadArray.exit:                            ; preds = %25, %Ndr_DataSize.exit.i, %4
  %.2 = phi ptr [ null, %4 ], [ %.0, %25 ], [ %.126, %Ndr_DataSize.exit.i ]
  %.0.lcssa.i = phi i32 [ 0, %4 ], [ %.024.i, %25 ], [ %.1.i27, %Ndr_DataSize.exit.i ]
  %or.cond = icmp ult i32 %.0.lcssa.i, 2
  %36 = icmp ne i32 %3, 0
  %or.cond3 = and i1 %36, %or.cond
  br i1 %or.cond3, label %58, label %37

37:                                               ; preds = %Ndr_ObjReadArray.exit
  %38 = icmp eq i32 %.0.lcssa.i, 3
  %or.cond5 = and i1 %36, %38
  br i1 %or.cond5, label %39, label %41

39:                                               ; preds = %37
  %40 = tail call i64 @fwrite(ptr nonnull @.str.78, i64 7, i64 1, ptr nonnull %2)
  br label %58

41:                                               ; preds = %37
  switch i32 %.0.lcssa.i, label %53 [
    i32 1, label %42
    i32 0, label %48
  ]

42:                                               ; preds = %41
  %43 = load i32, ptr %.2, align 4, !tbaa !3
  br i1 %36, label %44, label %46

44:                                               ; preds = %42
  %45 = tail call i32 (ptr, ptr, ...) @fprintf(ptr noundef nonnull %2, ptr noundef nonnull @.str.79, i32 noundef %43, i32 noundef %43) #22
  br label %58

46:                                               ; preds = %42
  %47 = tail call i32 (ptr, ptr, ...) @fprintf(ptr noundef nonnull %2, ptr noundef nonnull @.str.80, i32 noundef %43) #22
  br label %58

48:                                               ; preds = %41
  br i1 %36, label %49, label %51

49:                                               ; preds = %48
  %50 = tail call i32 (ptr, ptr, ...) @fprintf(ptr noundef nonnull %2, ptr noundef nonnull @.str.79, i32 noundef 0, i32 noundef 0) #22
  br label %58

51:                                               ; preds = %48
  %52 = tail call i32 (ptr, ptr, ...) @fprintf(ptr noundef nonnull %2, ptr noundef nonnull @.str.80, i32 noundef 0) #22
  br label %58

53:                                               ; preds = %41
  %54 = load i32, ptr %.2, align 4, !tbaa !3
  %55 = getelementptr inbounds nuw i8, ptr %.2, i64 4
  %56 = load i32, ptr %55, align 4, !tbaa !3
  %57 = tail call i32 (ptr, ptr, ...) @fprintf(ptr noundef nonnull %2, ptr noundef nonnull @.str.79, i32 noundef %54, i32 noundef %56) #22
  br label %58

58:                                               ; preds = %39, %53, %51, %49, %44, %46, %Ndr_ObjReadArray.exit
  ret void
}